; ModuleID = '25/406.cpp'
source_filename = "25/406.cpp"
target datalayout = "e-m:e-p270:32:32-p271:32:32-p272:64:64-i64:64-f80:128-n8:16:32:64-S128"
target triple = "x86_64-pc-linux-gnu"

%"class.std::ios_base::Init" = type { i8 }
%"class.std::basic_istream" = type { i32 (...)**, i64, %"class.std::basic_ios" }
%"class.std::basic_ios" = type { %"class.std::ios_base", %"class.std::basic_ostream"*, i8, i8, %"class.std::basic_streambuf"*, %"class.std::ctype"*, %"class.std::num_put"*, %"class.std::num_get"* }
%"class.std::ios_base" = type { i32 (...)**, i64, i64, i32, i32, i32, %"struct.std::ios_base::_Callback_list"*, %"struct.std::ios_base::_Words", [8 x %"struct.std::ios_base::_Words"], i32, %"struct.std::ios_base::_Words"*, %"class.std::locale" }
%"struct.std::ios_base::_Callback_list" = type { %"struct.std::ios_base::_Callback_list"*, void (i32, %"class.std::ios_base"*, i32)*, i32, i32 }
%"struct.std::ios_base::_Words" = type { i8*, i64 }
%"class.std::locale" = type { %"class.std::locale::_Impl"* }
%"class.std::locale::_Impl" = type { i32, %"class.std::locale::facet"**, i64, %"class.std::locale::facet"**, i8** }
%"class.std::locale::facet" = type <{ i32 (...)**, i32, [4 x i8] }>
%"class.std::basic_ostream" = type { i32 (...)**, %"class.std::basic_ios" }
%"class.std::basic_streambuf" = type { i32 (...)**, i8*, i8*, i8*, i8*, i8*, i8*, %"class.std::locale" }
%"class.std::ctype" = type <{ %"class.std::locale::facet.base", [4 x i8], %struct.__locale_struct*, i8, [7 x i8], i32*, i32*, i16*, i8, [256 x i8], [256 x i8], i8, [6 x i8] }>
%"class.std::locale::facet.base" = type <{ i32 (...)**, i32 }>
%struct.__locale_struct = type { [13 x %struct.__locale_data*], i16*, i32*, i32*, [13 x i8*] }
%struct.__locale_data = type opaque
%"class.std::num_put" = type { %"class.std::locale::facet.base", [4 x i8] }
%"class.std::num_get" = type { %"class.std::locale::facet.base", [4 x i8] }

@_ZStL8__ioinit = internal global %"class.std::ios_base::Init" zeroinitializer, align 1
@__dso_handle = external hidden global i8
@__const.main.an = private unnamed_addr constant <{ [11 x i32], [89 x i32] }> <{ [11 x i32] [i32 4, i32 2, i32 8, i32 1, i32 4, i32 7, i32 3, i32 7, i32 0, i32 1, i32 -1], [89 x i32] zeroinitializer }>, align 16
@_ZSt3cin = external dso_local global %"class.std::basic_istream", align 8
@_ZSt4cout = external dso_local global %"class.std::basic_ostream", align 8
@llvm.global_ctors = appending global [1 x { i32, void ()*, i8* }] [{ i32, void ()*, i8* } { i32 65535, void ()* @_GLOBAL__sub_I_406.cpp, i8* null }]

; Function Attrs: noinline uwtable
define internal void @__cxx_global_var_init() #0 section ".text.startup" {
  call void @_ZNSt8ios_base4InitC1Ev(%"class.std::ios_base::Init"* @_ZStL8__ioinit)
  %1 = call i32 @__cxa_atexit(void (i8*)* bitcast (void (%"class.std::ios_base::Init"*)* @_ZNSt8ios_base4InitD1Ev to void (i8*)*), i8* getelementptr inbounds (%"class.std::ios_base::Init", %"class.std::ios_base::Init"* @_ZStL8__ioinit, i32 0, i32 0), i8* @__dso_handle) #3
  ret void
}

declare dso_local void @_ZNSt8ios_base4InitC1Ev(%"class.std::ios_base::Init"*) unnamed_addr #1

; Function Attrs: nounwind
declare dso_local void @_ZNSt8ios_base4InitD1Ev(%"class.std::ios_base::Init"*) unnamed_addr #2

; Function Attrs: nounwind
declare dso_local i32 @__cxa_atexit(void (i8*)*, i8*, i8*) #3

; Function Attrs: noinline norecurse uwtable
define dso_local i32 @main() #4 {
  %1 = alloca i32, align 4
  %2 = alloca i32, align 4
  %3 = alloca [100 x i32], align 16
  %4 = alloca i32, align 4
  %5 = alloca i32, align 4
  %6 = alloca i32, align 4
  %7 = alloca i32, align 4
  %8 = alloca i32, align 4
  store i32 0, i32* %1, align 4
  %9 = bitcast [100 x i32]* %3 to i8*
  call void @llvm.memcpy.p0i8.p0i8.i64(i8* align 16 %9, i8* align 16 bitcast (<{ [11 x i32], [89 x i32] }>* @__const.main.an to i8*), i64 400, i1 false)
  store i32 0, i32* %4, align 4
  %10 = call dereferenceable(280) %"class.std::basic_istream"* @_ZNSirsERi(%"class.std::basic_istream"* @_ZSt3cin, i32* dereferenceable(4) %2)
  %11 = load i32, i32* %2, align 4
  %12 = icmp sle i32 %11, 30
  br i1 %12, label %13, label %20

13:                                               ; preds = %0
  %14 = load i32, i32* %2, align 4
  %15 = sitofp i32 %14 to double
  %16 = call double @pow(double 2.000000e+00, double %15) #3
  %17 = fptosi double %16 to i32
  %18 = call dereferenceable(272) %"class.std::basic_ostream"* @_ZNSolsEi(%"class.std::basic_ostream"* @_ZSt4cout, i32 %17)
  %19 = call dereferenceable(272) %"class.std::basic_ostream"* @_ZNSolsEPFRSoS_E(%"class.std::basic_ostream"* %18, %"class.std::basic_ostream"* (%"class.std::basic_ostream"*)* @_ZSt4endlIcSt11char_traitsIcEERSt13basic_ostreamIT_T0_ES6_)
  br label %106

20:                                               ; preds = %0
  %21 = load i32, i32* %2, align 4
  %22 = sub nsw i32 %21, 30
  store i32 %22, i32* %2, align 4
  store i32 0, i32* %6, align 4
  br label %23

23:                                               ; preds = %75, %20
  %24 = load i32, i32* %6, align 4
  %25 = load i32, i32* %2, align 4
  %26 = icmp slt i32 %24, %25
  br i1 %26, label %27, label %78

27:                                               ; preds = %23
  store i32 0, i32* %4, align 4
  store i32 0, i32* %5, align 4
  br label %28

28:                                               ; preds = %59, %27
  %29 = load i32, i32* %5, align 4
  %30 = sext i32 %29 to i64
  %31 = getelementptr inbounds [100 x i32], [100 x i32]* %3, i64 0, i64 %30
  %32 = load i32, i32* %31, align 4
  %33 = add nsw i32 %32, 1
  %34 = icmp ne i32 %33, 0
  br i1 %34, label %35, label %62

35:                                               ; preds = %28
  %36 = load i32, i32* %5, align 4
  %37 = sext i32 %36 to i64
  %38 = getelementptr inbounds [100 x i32], [100 x i32]* %3, i64 0, i64 %37
  %39 = load i32, i32* %38, align 4
  %40 = mul nsw i32 %39, 2
  %41 = load i32, i32* %4, align 4
  %42 = add nsw i32 %40, %41
  %43 = load i32, i32* %5, align 4
  %44 = sext i32 %43 to i64
  %45 = getelementptr inbounds [100 x i32], [100 x i32]* %3, i64 0, i64 %44
  store i32 %42, i32* %45, align 4
  %46 = load i32, i32* %5, align 4
  %47 = sext i32 %46 to i64
  %48 = getelementptr inbounds [100 x i32], [100 x i32]* %3, i64 0, i64 %47
  %49 = load i32, i32* %48, align 4
  %50 = sdiv i32 %49, 10
  store i32 %50, i32* %4, align 4
  %51 = load i32, i32* %5, align 4
  %52 = sext i32 %51 to i64
  %53 = getelementptr inbounds [100 x i32], [100 x i32]* %3, i64 0, i64 %52
  %54 = load i32, i32* %53, align 4
  %55 = srem i32 %54, 10
  %56 = load i32, i32* %5, align 4
  %57 = sext i32 %56 to i64
  %58 = getelementptr inbounds [100 x i32], [100 x i32]* %3, i64 0, i64 %57
  store i32 %55, i32* %58, align 4
  br label %59

59:                                               ; preds = %35
  %60 = load i32, i32* %5, align 4
  %61 = add nsw i32 %60, 1
  store i32 %61, i32* %5, align 4
  br label %28

62:                                               ; preds = %28
  %63 = load i32, i32* %4, align 4
  %64 = icmp ne i32 %63, 0
  br i1 %64, label %65, label %74

65:                                               ; preds = %62
  %66 = load i32, i32* %4, align 4
  %67 = load i32, i32* %5, align 4
  %68 = sext i32 %67 to i64
  %69 = getelementptr inbounds [100 x i32], [100 x i32]* %3, i64 0, i64 %68
  store i32 %66, i32* %69, align 4
  %70 = load i32, i32* %5, align 4
  %71 = add nsw i32 %70, 1
  %72 = sext i32 %71 to i64
  %73 = getelementptr inbounds [100 x i32], [100 x i32]* %3, i64 0, i64 %72
  store i32 -1, i32* %73, align 4
  br label %74

74:                                               ; preds = %65, %62
  br label %75

75:                                               ; preds = %74
  %76 = load i32, i32* %6, align 4
  %77 = add nsw i32 %76, 1
  store i32 %77, i32* %6, align 4
  br label %23

78:                                               ; preds = %23
  store i32 100, i32* %7, align 4
  br label %79

79:                                               ; preds = %86, %78
  %80 = load i32, i32* %7, align 4
  %81 = sext i32 %80 to i64
  %82 = getelementptr inbounds [100 x i32], [100 x i32]* %3, i64 0, i64 %81
  %83 = load i32, i32* %82, align 4
  %84 = icmp ne i32 %83, -1
  br i1 %84, label %85, label %89

85:                                               ; preds = %79
  br label %86

86:                                               ; preds = %85
  %87 = load i32, i32* %7, align 4
  %88 = add nsw i32 %87, -1
  store i32 %88, i32* %7, align 4
  br label %79

89:                                               ; preds = %79
  %90 = load i32, i32* %7, align 4
  %91 = sub nsw i32 %90, 1
  store i32 %91, i32* %8, align 4
  br label %92

92:                                               ; preds = %101, %89
  %93 = load i32, i32* %8, align 4
  %94 = icmp sge i32 %93, 0
  br i1 %94, label %95, label %104

95:                                               ; preds = %92
  %96 = load i32, i32* %8, align 4
  %97 = sext i32 %96 to i64
  %98 = getelementptr inbounds [100 x i32], [100 x i32]* %3, i64 0, i64 %97
  %99 = load i32, i32* %98, align 4
  %100 = call dereferenceable(272) %"class.std::basic_ostream"* @_ZNSolsEi(%"class.std::basic_ostream"* @_ZSt4cout, i32 %99)
  br label %101

101:                                              ; preds = %95
  %102 = load i32, i32* %8, align 4
  %103 = add nsw i32 %102, -1
  store i32 %103, i32* %8, align 4
  br label %92

104:                                              ; preds = %92
  %105 = call dereferenceable(272) %"class.std::basic_ostream"* @_ZNSolsEPFRSoS_E(%"class.std::basic_ostream"* @_ZSt4cout, %"class.std::basic_ostream"* (%"class.std::basic_ostream"*)* @_ZSt4endlIcSt11char_traitsIcEERSt13basic_ostreamIT_T0_ES6_)
  br label %106

106:                                              ; preds = %104, %13
  ret i32 0
}

; Function Attrs: argmemonly nounwind willreturn
declare void @llvm.memcpy.p0i8.p0i8.i64(i8* noalias nocapture writeonly, i8* noalias nocapture readonly, i64, i1 immarg) #5

declare dso_local dereferenceable(280) %"class.std::basic_istream"* @_ZNSirsERi(%"class.std::basic_istream"*, i32* dereferenceable(4)) #1

declare dso_local dereferenceable(272) %"class.std::basic_ostream"* @_ZNSolsEi(%"class.std::basic_ostream"*, i32) #1

; Function Attrs: nounwind
declare dso_local double @pow(double, double) #2

declare dso_local dereferenceable(272) %"class.std::basic_ostream"* @_ZNSolsEPFRSoS_E(%"class.std::basic_ostream"*, %"class.std::basic_ostream"* (%"class.std::basic_ostream"*)*) #1

declare dso_local dereferenceable(272) %"class.std::basic_ostream"* @_ZSt4endlIcSt11char_traitsIcEERSt13basic_ostreamIT_T0_ES6_(%"class.std::basic_ostream"* dereferenceable(272)) #1

; Function Attrs: noinline uwtable
define internal void @_GLOBAL__sub_I_406.cpp() #0 section ".text.startup" {
  call void @__cxx_global_var_init()
  ret void
}


!llvm.module.flags = !{!0}
!llvm.ident = !{!1}

!0 = !{i32 1, !"wchar_size", i32 4}
!1 = !{!"clang version 10.0.0-4ubuntu1 "}
